target datalayout = "e-m:e-p270:32:32-p271:32:32-p272:64:64-i64:64-i128:128-f80:128-n8:16:32:64-S128"
target triple = "x86_64-pc-linux-gnu"

%struct.AVFilterContext = type { ptr, ptr, ptr, ptr, ptr, i32, ptr, ptr, i32, ptr, ptr, i32, i32, ptr, ptr, ptr, ptr, i32, ptr, i32, i32 }
%struct.UnsharpContext = type { ptr, i32, i32, i32, i32, i32, i32, float, float, float, %struct.UnsharpFilterParam, %struct.UnsharpFilterParam, %struct.UnsharpFilterParam, i32, i32, i32, i32, i32, i32, ptr }
%struct.UnsharpFilterParam = type { i32, i32, i32, i32, i32, i32, i32, ptr, ptr }

@.str.3 = private unnamed_addr constant [5 x i8] c"luma\00", align 1
@.str.4 = private unnamed_addr constant [7 x i8] c"chroma\00", align 1
@.str.39 = private unnamed_addr constant [2 x i8] c"l\00", align 1
@.str.40 = private unnamed_addr constant [2 x i8] c"c\00", align 1
@.str.41 = private unnamed_addr constant [6 x i8] c"alpha\00", align 1
@.str.42 = private unnamed_addr constant [2 x i8] c"a\00", align 1

; Function Attrs: cold nounwind optsize uwtable
define internal i32 @init(ptr noundef %0) #0 {
  %2 = alloca i32, align 4
  %3 = alloca ptr, align 8
  %4 = alloca ptr, align 8
  %5 = alloca i32, align 4
  %6 = alloca i32, align 4
  store ptr %0, ptr %3, align 8, !tbaa !4
  call void @llvm.lifetime.start.p0(i64 8, ptr %4) #8
  %7 = load ptr, ptr %3, align 8, !tbaa !4
  %8 = getelementptr inbounds nuw %struct.AVFilterContext, ptr %7, i32 0, i32 9
  %9 = load ptr, ptr %8, align 8, !tbaa !9
  store ptr %9, ptr %4, align 8, !tbaa !22
  call void @llvm.lifetime.start.p0(i64 4, ptr %5) #8
  %10 = load ptr, ptr %3, align 8, !tbaa !4
  %11 = load ptr, ptr %4, align 8, !tbaa !22
  %12 = getelementptr inbounds nuw %struct.UnsharpContext, ptr %11, i32 0, i32 10
  %13 = load ptr, ptr %4, align 8, !tbaa !22
  %14 = getelementptr inbounds nuw %struct.UnsharpContext, ptr %13, i32 0, i32 1
  %15 = load i32, ptr %14, align 8, !tbaa !24
  %16 = load ptr, ptr %4, align 8, !tbaa !22
  %17 = getelementptr inbounds nuw %struct.UnsharpContext, ptr %16, i32 0, i32 2
  %18 = load i32, ptr %17, align 4, !tbaa !30
  %19 = load ptr, ptr %4, align 8, !tbaa !22
  %20 = getelementptr inbounds nuw %struct.UnsharpContext, ptr %19, i32 0, i32 7
  %21 = load float, ptr %20, align 8, !tbaa !31
  %22 = call i32 @set_filter_param(ptr noundef %10, ptr noundef @.str.3, ptr noundef @.str.39, ptr noundef %12, i32 noundef %15, i32 noundef %18, float noundef %21)
  store i32 %22, ptr %5, align 4, !tbaa !32
  %23 = load i32, ptr %5, align 4, !tbaa !32
  %24 = icmp slt i32 %23, 0
  br i1 %24, label %25, label %27

25:                                               ; preds = %1
  %26 = load i32, ptr %5, align 4, !tbaa !32
  store i32 %26, ptr %2, align 4
  store i32 1, ptr %6, align 4
  br label %64

27:                                               ; preds = %1
  %28 = load ptr, ptr %3, align 8, !tbaa !4
  %29 = load ptr, ptr %4, align 8, !tbaa !22
  %30 = getelementptr inbounds nuw %struct.UnsharpContext, ptr %29, i32 0, i32 11
  %31 = load ptr, ptr %4, align 8, !tbaa !22
  %32 = getelementptr inbounds nuw %struct.UnsharpContext, ptr %31, i32 0, i32 3
  %33 = load i32, ptr %32, align 8, !tbaa !33
  %34 = load ptr, ptr %4, align 8, !tbaa !22
  %35 = getelementptr inbounds nuw %struct.UnsharpContext, ptr %34, i32 0, i32 4
  %36 = load i32, ptr %35, align 4, !tbaa !34
  %37 = load ptr, ptr %4, align 8, !tbaa !22
  %38 = getelementptr inbounds nuw %struct.UnsharpContext, ptr %37, i32 0, i32 8
  %39 = load float, ptr %38, align 4, !tbaa !35
  %40 = call i32 @set_filter_param(ptr noundef %28, ptr noundef @.str.4, ptr noundef @.str.40, ptr noundef %30, i32 noundef %33, i32 noundef %36, float noundef %39)
  store i32 %40, ptr %5, align 4, !tbaa !32
  %41 = load i32, ptr %5, align 4, !tbaa !32
  %42 = icmp slt i32 %41, 0
  br i1 %42, label %43, label %45

43:                                               ; preds = %27
  %44 = load i32, ptr %5, align 4, !tbaa !32
  store i32 %44, ptr %2, align 4
  store i32 1, ptr %6, align 4
  br label %64

45:                                               ; preds = %27
  %46 = load ptr, ptr %3, align 8, !tbaa !4
  %47 = load ptr, ptr %4, align 8, !tbaa !22
  %48 = getelementptr inbounds nuw %struct.UnsharpContext, ptr %47, i32 0, i32 12
  %49 = load ptr, ptr %4, align 8, !tbaa !22
  %50 = getelementptr inbounds nuw %struct.UnsharpContext, ptr %49, i32 0, i32 5
  %51 = load i32, ptr %50, align 8, !tbaa !36
  %52 = load ptr, ptr %4, align 8, !tbaa !22
  %53 = getelementptr inbounds nuw %struct.UnsharpContext, ptr %52, i32 0, i32 6
  %54 = load i32, ptr %53, align 4, !tbaa !37
  %55 = load ptr, ptr %4, align 8, !tbaa !22
  %56 = getelementptr inbounds nuw %struct.UnsharpContext, ptr %55, i32 0, i32 9
  %57 = load float, ptr %56, align 8, !tbaa !38
  %58 = call i32 @set_filter_param(ptr noundef %46, ptr noundef @.str.41, ptr noundef @.str.42, ptr noundef %48, i32 noundef %51, i32 noundef %54, float noundef %57)
  store i32 %58, ptr %5, align 4, !tbaa !32
  %59 = load i32, ptr %5, align 4, !tbaa !32
  %60 = icmp slt i32 %59, 0
  br i1 %60, label %61, label %63

61:                                               ; preds = %45
  %62 = load i32, ptr %5, align 4, !tbaa !32
  store i32 %62, ptr %2, align 4
  store i32 1, ptr %6, align 4
  br label %64

63:                                               ; preds = %45
  store i32 0, ptr %2, align 4
  store i32 1, ptr %6, align 4
  br label %64

64:                                               ; preds = %63, %61, %43, %25
  call void @llvm.lifetime.end.p0(i64 4, ptr %5) #8
  call void @llvm.lifetime.end.p0(i64 8, ptr %4) #8
  %65 = load i32, ptr %2, align 4
  ret i32 %65
}