; Function Attrs: cold nounwind optsize uwtable
define internal range(i32 -22, 1) i32 @init(ptr noundef %0) #0 {
  %2 = getelementptr inbounds nuw i8, ptr %0, i64 72
  %3 = load ptr, ptr %2, align 8, !tbaa !4
  %4 = getelementptr inbounds nuw i8, ptr %3, i64 48
  %5 = getelementptr inbounds nuw i8, ptr %3, i64 8
  %6 = load i32, ptr %5, align 8, !tbaa !20
  %7 = getelementptr inbounds nuw i8, ptr %3, i64 12
  %8 = load i32, ptr %7, align 4, !tbaa !26
  %9 = getelementptr inbounds nuw i8, ptr %3, i64 32
  %10 = load float, ptr %9, align 8, !tbaa !27
  %11 = tail call fastcc i32 @set_filter_param(ptr noundef %0, ptr noundef nonnull @.str.3, ptr noundef nonnull @.str.39, ptr noundef nonnull %4, i32 noundef %6, i32 noundef %8, float noundef %10)
  %12 = icmp slt i32 %11, 0
  br i1 %12, label %32, label %13

13:                                               ; preds = %1
  %14 = getelementptr inbounds nuw i8, ptr %3, i64 96
  %15 = getelementptr inbounds nuw i8, ptr %3, i64 16
  %16 = load i32, ptr %15, align 8, !tbaa !28
  %17 = getelementptr inbounds nuw i8, ptr %3, i64 20
  %18 = load i32, ptr %17, align 4, !tbaa !29
  %19 = getelementptr inbounds nuw i8, ptr %3, i64 36
  %20 = load float, ptr %19, align 4, !tbaa !30
  %21 = tail call fastcc i32 @set_filter_param(ptr noundef nonnull %0, ptr noundef nonnull @.str.4, ptr noundef nonnull @.str.40, ptr noundef nonnull %14, i32 noundef %16, i32 noundef %18, float noundef %20)
  %22 = icmp slt i32 %21, 0
  br i1 %22, label %32, label %23

23:                                               ; preds = %13
  %24 = getelementptr inbounds nuw i8, ptr %3, i64 144
  %25 = getelementptr inbounds nuw i8, ptr %3, i64 24
  %26 = load i32, ptr %25, align 8, !tbaa !31
  %27 = getelementptr inbounds nuw i8, ptr %3, i64 28
  %28 = load i32, ptr %27, align 4, !tbaa !32
  %29 = getelementptr inbounds nuw i8, ptr %3, i64 40
  %30 = load float, ptr %29, align 8, !tbaa !33
  %31 = tail call fastcc i32 @set_filter_param(ptr noundef nonnull %0, ptr noundef nonnull @.str.41, ptr noundef nonnull @.str.42, ptr noundef nonnull %24, i32 noundef %26, i32 noundef %28, float noundef %30)
  br label %32

32:                                               ; preds = %23, %13, %1
  %.0 = phi i32 [ %11, %1 ], [ %21, %13 ], [ %31, %23 ]
  ret i32 %.0
}